

Microchip MPLAB XC8 Assembler V2.46 build 20240104201356 
                                                                                               Thu Sep 05 07:06:57 2024

Microchip MPLAB XC8 C Compiler v2.46 (Free license) build 20240104201356 Og1 
     1                           	processor	16F887
     2                           	pagewidth 120
     3                           	opt	flic
     4                           	psect	idataBANK0,global,class=CODE,delta=2,noexec
     5                           	psect	cinit,global,class=CODE,merge=1,delta=2
     6                           	psect	dataBANK0,global,class=BANK0,space=1,delta=1,noexec
     7                           	psect	inittext,global,class=CODE,delta=2
     8                           	psect	cstackCOMMON,global,class=COMMON,space=1,delta=1,noexec
     9                           	psect	cstackBANK0,global,class=BANK0,space=1,delta=1,noexec
    10                           	psect	maintext,global,class=CODE,split=1,delta=2
    11                           	psect	text1,local,class=CODE,merge=1,delta=2
    12                           	psect	text2,local,class=CODE,merge=1,delta=2
    13                           	psect	text3,local,class=CODE,merge=1,delta=2,group=1
    14                           	psect	text4,local,class=CODE,merge=1,delta=2,group=1
    15                           	psect	text5,local,class=CODE,merge=1,delta=2
    16                           	psect	config,global,abs,ovrld,class=CONFIG,space=4,delta=2,noexec
    17                           	dabs	1,0x7E,2
    18     0000                     
    19                           ; Generated 12/10/2023 GMT
    20                           ; 
    21                           ; Copyright © 2023, Microchip Technology Inc. and its subsidiaries ("Microchip")
    22                           ; All rights reserved.
    23                           ; 
    24                           ; This software is developed by Microchip Technology Inc. and its subsidiaries ("Microch
      +                          ip").
    25                           ; 
    26                           ; Redistribution and use in source and binary forms, with or without modification, are
    27                           ; permitted provided that the following conditions are met:
    28                           ; 
    29                           ;     1. Redistributions of source code must retain the above copyright notice, this lis
      +                          t of
    30                           ;        conditions and the following disclaimer.
    31                           ; 
    32                           ;     2. Redistributions in binary form must reproduce the above copyright notice, this 
      +                          list
    33                           ;        of conditions and the following disclaimer in the documentation and/or other
    34                           ;        materials provided with the distribution. Publication is not required when
    35                           ;        this file is used in an embedded application.
    36                           ; 
    37                           ;     3. Microchip's name may not be used to endorse or promote products derived from th
      +                          is
    38                           ;        software without specific prior written permission.
    39                           ; 
    40                           ; THIS SOFTWARE IS PROVIDED BY MICROCHIP "AS IS" AND ANY EXPRESS OR IMPLIED WARRANTIES,
    41                           ; INCLUDING, BUT NOT LIMITED TO, THE IMPLIED WARRANTIES OF MERCHANTABILITY AND FITNESS F
      +                          OR
    42                           ; PURPOSE ARE DISCLAIMED.  IN NO EVENT SHALL MICROCHIP BE LIABLE FOR ANY DIRECT, INDIREC
      +                          T,
    43                           ; INCIDENTAL, SPECIAL, EXEMPLARY, OR CONSEQUENTIAL DAMAGES (INCLUDING BUT NOT LIMITED TO
    44                           ; PROCUREMENT OF SUBSTITUTE GOODS OR SERVICES; LOSS OF USE, DATA OR PROFITS; OR BUSINESS
    45                           ; INTERRUPTION) HOWSOEVER CAUSED AND ON ANY THEORY OF LIABILITY, WHETHER IN CONTRACT, ST
      +                          RICT
    46                           ; LIABILITY, OR TORT (INCLUDING NEGLIGENCE OR OTHERWISE) ARISING IN ANY WAY OUT OF THE U
      +                          SE OF
    47                           ; THIS SOFTWARE, EVEN IF ADVISED OF THE POSSIBILITY OF SUCH DAMAGE.
    48                           ; 
    49                           ; 
    50                           ; Code-generator required, PIC16F887 Definitions
    51                           ; 
    52                           ; SFR Addresses
    53     0000                     	;# 
    54     0001                     	;# 
    55     0002                     	;# 
    56     0003                     	;# 
    57     0004                     	;# 
    58     0005                     	;# 
    59     0006                     	;# 
    60     0007                     	;# 
    61     0008                     	;# 
    62     0009                     	;# 
    63     000A                     	;# 
    64     000B                     	;# 
    65     000C                     	;# 
    66     000D                     	;# 
    67     000E                     	;# 
    68     000E                     	;# 
    69     000F                     	;# 
    70     0010                     	;# 
    71     0011                     	;# 
    72     0012                     	;# 
    73     0013                     	;# 
    74     0014                     	;# 
    75     0015                     	;# 
    76     0015                     	;# 
    77     0016                     	;# 
    78     0017                     	;# 
    79     0018                     	;# 
    80     0019                     	;# 
    81     001A                     	;# 
    82     001B                     	;# 
    83     001B                     	;# 
    84     001C                     	;# 
    85     001D                     	;# 
    86     001E                     	;# 
    87     001F                     	;# 
    88     0081                     	;# 
    89     0085                     	;# 
    90     0086                     	;# 
    91     0087                     	;# 
    92     0088                     	;# 
    93     0089                     	;# 
    94     008C                     	;# 
    95     008D                     	;# 
    96     008E                     	;# 
    97     008F                     	;# 
    98     0090                     	;# 
    99     0091                     	;# 
   100     0092                     	;# 
   101     0093                     	;# 
   102     0093                     	;# 
   103     0093                     	;# 
   104     0094                     	;# 
   105     0095                     	;# 
   106     0096                     	;# 
   107     0097                     	;# 
   108     0098                     	;# 
   109     0099                     	;# 
   110     009A                     	;# 
   111     009B                     	;# 
   112     009C                     	;# 
   113     009D                     	;# 
   114     009E                     	;# 
   115     009F                     	;# 
   116     0105                     	;# 
   117     0107                     	;# 
   118     0108                     	;# 
   119     0109                     	;# 
   120     010C                     	;# 
   121     010C                     	;# 
   122     010D                     	;# 
   123     010E                     	;# 
   124     010F                     	;# 
   125     0185                     	;# 
   126     0187                     	;# 
   127     0188                     	;# 
   128     0189                     	;# 
   129     018C                     	;# 
   130     018D                     	;# 
   131     0000                     	;# 
   132     0001                     	;# 
   133     0002                     	;# 
   134     0003                     	;# 
   135     0004                     	;# 
   136     0005                     	;# 
   137     0006                     	;# 
   138     0007                     	;# 
   139     0008                     	;# 
   140     0009                     	;# 
   141     000A                     	;# 
   142     000B                     	;# 
   143     000C                     	;# 
   144     000D                     	;# 
   145     000E                     	;# 
   146     000E                     	;# 
   147     000F                     	;# 
   148     0010                     	;# 
   149     0011                     	;# 
   150     0012                     	;# 
   151     0013                     	;# 
   152     0014                     	;# 
   153     0015                     	;# 
   154     0015                     	;# 
   155     0016                     	;# 
   156     0017                     	;# 
   157     0018                     	;# 
   158     0019                     	;# 
   159     001A                     	;# 
   160     001B                     	;# 
   161     001B                     	;# 
   162     001C                     	;# 
   163     001D                     	;# 
   164     001E                     	;# 
   165     001F                     	;# 
   166     0081                     	;# 
   167     0085                     	;# 
   168     0086                     	;# 
   169     0087                     	;# 
   170     0088                     	;# 
   171     0089                     	;# 
   172     008C                     	;# 
   173     008D                     	;# 
   174     008E                     	;# 
   175     008F                     	;# 
   176     0090                     	;# 
   177     0091                     	;# 
   178     0092                     	;# 
   179     0093                     	;# 
   180     0093                     	;# 
   181     0093                     	;# 
   182     0094                     	;# 
   183     0095                     	;# 
   184     0096                     	;# 
   185     0097                     	;# 
   186     0098                     	;# 
   187     0099                     	;# 
   188     009A                     	;# 
   189     009B                     	;# 
   190     009C                     	;# 
   191     009D                     	;# 
   192     009E                     	;# 
   193     009F                     	;# 
   194     0105                     	;# 
   195     0107                     	;# 
   196     0108                     	;# 
   197     0109                     	;# 
   198     010C                     	;# 
   199     010C                     	;# 
   200     010D                     	;# 
   201     010E                     	;# 
   202     010F                     	;# 
   203     0185                     	;# 
   204     0187                     	;# 
   205     0188                     	;# 
   206     0189                     	;# 
   207     018C                     	;# 
   208     018D                     	;# 
   209                           
   210                           	psect	idataBANK0
   211     0522                     __pidataBANK0:
   212                           
   213                           ;initializer for _MaLed7Seg_nghich
   214     0522  3490               	retlw	144
   215     0523  3480               	retlw	128
   216     0524  34F8               	retlw	248
   217     0525  3482               	retlw	130
   218     0526  3492               	retlw	146
   219     0527  3499               	retlw	153
   220     0528  34B0               	retlw	176
   221     0529  34A4               	retlw	164
   222     052A  34F9               	retlw	249
   223     052B  34C0               	retlw	192
   224                           
   225                           ;initializer for _MaLed
   226     052C  34C0               	retlw	192
   227     052D  34F9               	retlw	249
   228     052E  34A4               	retlw	164
   229     052F  34B0               	retlw	176
   230     0530  3499               	retlw	153
   231     0531  3492               	retlw	146
   232     0532  3482               	retlw	130
   233     0533  34F8               	retlw	248
   234     0534  3480               	retlw	128
   235     0535  3490               	retlw	144
   236     0009                     _PORTE	set	9
   237     0005                     _PORTA	set	5
   238     0008                     _PORTD	set	8
   239     0007                     _PORTC	set	7
   240     0032                     _RB2	set	50
   241     0031                     _RB1	set	49
   242     0030                     _RB0	set	48
   243     0048                     _RE0	set	72
   244     0089                     _TRISE	set	137
   245     0085                     _TRISA	set	133
   246     0088                     _TRISD	set	136
   247     0087                     _TRISC	set	135
   248     04AA                     _WPUB2	set	1194
   249     04A9                     _WPUB1	set	1193
   250     04A8                     _WPUB0	set	1192
   251     040F                     _nRBPU	set	1039
   252     0432                     _TRISB2	set	1074
   253     0431                     _TRISB1	set	1073
   254     0430                     _TRISB0	set	1072
   255     0189                     _ANSELH	set	393
   256     0188                     _ANSEL	set	392
   257                           
   258                           	psect	cinit
   259     07EE                     start_initialization:	
   260                           ; #config settings
   261                           
   262     07EE                     __initialization:
   263                           
   264                           ; Initialize objects allocated to BANK0
   265     07EE  1383               	bcf	3,7	;select IRP bank0
   266     07EF  3034               	movlw	low (__pdataBANK0+20)
   267     07F0  00FD               	movwf	btemp+-1
   268     07F1  3005               	movlw	high __pidataBANK0
   269     07F2  00FE               	movwf	btemp
   270     07F3  3022               	movlw	low __pidataBANK0
   271     07F4  00FF               	movwf	btemp+1
   272     07F5  3020               	movlw	low __pdataBANK0
   273     07F6  0084               	movwf	4
   274     07F7  120A  118A  2513  120A  118A  	fcall	init_ram0
   275     07FC                     end_of_initialization:	
   276                           ;End of C runtime variable initialization code
   277                           
   278     07FC                     __end_of__initialization:
   279     07FC  0183               	clrf	3
   280     07FD  120A  118A  2F37   	ljmp	_main	;jump to C main() function
   281                           
   282                           	psect	dataBANK0
   283     0020                     __pdataBANK0:
   284     0020                     _MaLed7Seg_nghich:
   285     0020                     	ds	10
   286     002A                     _MaLed:
   287     002A                     	ds	10
   288                           
   289                           	psect	inittext
   290     050F                     init_fetch0:	
   291                           ;	Called with low address in FSR and high address in W
   292                           
   293     050F  087E               	movf	btemp,w
   294     0510  008A               	movwf	10
   295     0511  087F               	movf	btemp+1,w
   296     0512  0082               	movwf	2
   297     0513                     init_ram0:	
   298                           ;Called with:
   299                           ;	high address of idata address in btemp 
   300                           ;	low address of idata address in btemp+1 
   301                           ;	low address of data in FSR
   302                           ;	high address + 1 of data in btemp-1
   303                           
   304     0513  120A  118A  250F  120A  118A  	fcall	init_fetch0
   305     0518  0080               	movwf	0
   306     0519  0A84               	incf	4,f
   307     051A  0804               	movf	4,w
   308     051B  067D               	xorwf	btemp+-1,w
   309     051C  1903               	btfsc	3,2
   310     051D  3400               	retlw	0
   311     051E  0AFF               	incf	btemp+1,f
   312     051F  1903               	btfsc	3,2
   313     0520  0AFE               	incf	btemp,f
   314     0521  2D13               	goto	init_ram0
   315                           
   316                           	psect	cstackCOMMON
   317     0070                     __pcstackCOMMON:
   318     0070                     ?_choptat_IUH:
   319     0070                     ??_choptat_IUH:	
   320                           ; 1 bytes @ 0x0
   321                           
   322     0070                     ?_dem00_123:	
   323                           ; 1 bytes @ 0x0
   324                           
   325     0070                     ?_dem999_00:	
   326                           ; 1 bytes @ 0x0
   327                           
   328     0070                     ?_main:	
   329                           ; 1 bytes @ 0x0
   330                           
   331     0070                     ?___awdiv:	
   332                           ; 1 bytes @ 0x0
   333                           
   334     0070                     ___awdiv@divisor:	
   335                           ; 2 bytes @ 0x0
   336                           
   337                           
   338                           ; 2 bytes @ 0x0
   339     0070                     	ds	2
   340     0072                     ___awdiv@dividend:
   341                           
   342                           ; 2 bytes @ 0x2
   343     0072                     	ds	1
   344     0073                     choptat_IUH@i:
   345                           
   346                           ; 1 bytes @ 0x3
   347     0073                     	ds	1
   348     0074                     ??___awdiv:
   349     0074                     ___awdiv@counter:	
   350                           ; 1 bytes @ 0x4
   351                           
   352                           
   353                           ; 1 bytes @ 0x4
   354     0074                     	ds	1
   355     0075                     ___awdiv@sign:
   356                           
   357                           ; 1 bytes @ 0x5
   358     0075                     	ds	1
   359     0076                     ___awdiv@quotient:
   360                           
   361                           ; 2 bytes @ 0x6
   362     0076                     	ds	2
   363     0078                     ?___awmod:
   364     0078                     ___awmod@divisor:	
   365                           ; 2 bytes @ 0x8
   366                           
   367                           
   368                           ; 2 bytes @ 0x8
   369     0078                     	ds	2
   370     007A                     ___awmod@dividend:
   371                           
   372                           ; 2 bytes @ 0xA
   373     007A                     	ds	2
   374     007C                     ??___awmod:
   375     007C                     ___awmod@counter:	
   376                           ; 1 bytes @ 0xC
   377                           
   378                           
   379                           ; 1 bytes @ 0xC
   380     007C                     	ds	1
   381     007D                     ___awmod@sign:
   382                           
   383                           ; 1 bytes @ 0xD
   384     007D                     	ds	1
   385                           
   386                           	psect	cstackBANK0
   387     0034                     __pcstackBANK0:
   388     0034                     ??_dem00_123:
   389     0034                     ??_dem999_00:	
   390                           ; 1 bytes @ 0x0
   391                           
   392                           
   393                           ; 1 bytes @ 0x0
   394     0034                     	ds	2
   395     0036                     dem00_123@chuc:
   396     0036                     dem999_00@chuc:	
   397                           ; 1 bytes @ 0x2
   398                           
   399                           
   400                           ; 1 bytes @ 0x2
   401     0036                     	ds	1
   402     0037                     dem00_123@tram:
   403     0037                     dem999_00@tram:	
   404                           ; 1 bytes @ 0x3
   405                           
   406                           
   407                           ; 1 bytes @ 0x3
   408     0037                     	ds	1
   409     0038                     dem00_123@donVi:
   410     0038                     dem999_00@donVi:	
   411                           ; 1 bytes @ 0x4
   412                           
   413                           
   414                           ; 1 bytes @ 0x4
   415     0038                     	ds	1
   416     0039                     dem00_123@i:
   417     0039                     dem999_00@i:	
   418                           ; 2 bytes @ 0x5
   419                           
   420                           
   421                           ; 2 bytes @ 0x5
   422     0039                     	ds	2
   423     003B                     ??_main:
   424                           
   425                           ; 1 bytes @ 0x7
   426     003B                     	ds	2
   427                           
   428                           	psect	maintext
   429     0737                     __pmaintext:	
   430 ;;
   431 ;;Main: autosize = 0, tempsize = 2, incstack = 0, save=0
   432 ;;
   433 ;; *************** function _main *****************
   434 ;; Defined at:
   435 ;;		line 92 in file "BT8.c"
   436 ;; Parameters:    Size  Location     Type
   437 ;;		None
   438 ;; Auto vars:     Size  Location     Type
   439 ;;		None
   440 ;; Return value:  Size  Location     Type
   441 ;;                  1    wreg      void 
   442 ;; Registers used:
   443 ;;		wreg, fsr0l, fsr0h, status,2, status,0, btemp+1, pclath, cstack
   444 ;; Tracked objects:
   445 ;;		On entry : B00/0
   446 ;;		On exit  : 0/0
   447 ;;		Unchanged: 0/0
   448 ;; Data sizes:     COMMON   BANK0   BANK1   BANK3   BANK2
   449 ;;      Params:         0       0       0       0       0
   450 ;;      Locals:         0       0       0       0       0
   451 ;;      Temps:          0       2       0       0       0
   452 ;;      Totals:         0       2       0       0       0
   453 ;;Total ram usage:        2 bytes
   454 ;; Hardware stack levels required when called: 2
   455 ;; This function calls:
   456 ;;		_choptat_IUH
   457 ;;		_dem00_123
   458 ;;		_dem999_00
   459 ;; This function is called by:
   460 ;;		Startup code after reset
   461 ;; This function uses a non-reentrant model
   462 ;;
   463                           
   464     0737                     _main:	
   465                           ;psect for function _main
   466                           
   467     0737                     l941:	
   468                           ;incstack = 0
   469                           ; Regs used in _main: [wreg-fsr0h+status,2+status,0+btemp+1+pclath+cstack]
   470                           
   471                           
   472                           ;BT8.c: 96:     ANSEL = 0;
   473     0737  1683               	bsf	3,5	;RP0=1, select bank3
   474     0738  1703               	bsf	3,6	;RP1=1, select bank3
   475     0739  0188               	clrf	8	;volatile
   476                           
   477                           ;BT8.c: 97:     ANSELH = 0;
   478     073A  0189               	clrf	9	;volatile
   479     073B                     l943:
   480                           
   481                           ;BT8.c: 99:     TRISB0 = TRISB1 = TRISB2 = 1;
   482     073B  1683               	bsf	3,5	;RP0=1, select bank1
   483     073C  1303               	bcf	3,6	;RP1=0, select bank1
   484     073D  1506               	bsf	6,2	;volatile
   485     073E  1906               	btfsc	6,2	;volatile
   486     073F  2F41               	goto	u681
   487     0740  2F45               	goto	u680
   488     0741                     u681:
   489     0741  1683               	bsf	3,5	;RP0=1, select bank1
   490     0742  1303               	bcf	3,6	;RP1=0, select bank1
   491     0743  1486               	bsf	6,1	;volatile
   492     0744  2F48               	goto	u694
   493     0745                     u680:
   494     0745  1683               	bsf	3,5	;RP0=1, select bank1
   495     0746  1303               	bcf	3,6	;RP1=0, select bank1
   496     0747  1086               	bcf	6,1	;volatile
   497     0748                     u694:
   498     0748  1886               	btfsc	6,1	;volatile
   499     0749  2F4B               	goto	u691
   500     074A  2F4F               	goto	u690
   501     074B                     u691:
   502     074B  1683               	bsf	3,5	;RP0=1, select bank1
   503     074C  1303               	bcf	3,6	;RP1=0, select bank1
   504     074D  1406               	bsf	6,0	;volatile
   505     074E  2F52               	goto	u704
   506     074F                     u690:
   507     074F  1683               	bsf	3,5	;RP0=1, select bank1
   508     0750  1303               	bcf	3,6	;RP1=0, select bank1
   509     0751  1006               	bcf	6,0	;volatile
   510     0752                     u704:
   511     0752                     l945:
   512                           
   513                           ;BT8.c: 100:     nRBPU = 0;
   514     0752  1381               	bcf	1,7	;volatile
   515     0753                     l947:
   516                           
   517                           ;BT8.c: 101:     WPUB0 = WPUB1 = WPUB2 = 1;
   518     0753  1515               	bsf	21,2	;volatile
   519     0754  1915               	btfsc	21,2	;volatile
   520     0755  2F57               	goto	u711
   521     0756  2F5B               	goto	u710
   522     0757                     u711:
   523     0757  1683               	bsf	3,5	;RP0=1, select bank1
   524     0758  1303               	bcf	3,6	;RP1=0, select bank1
   525     0759  1495               	bsf	21,1	;volatile
   526     075A  2F5E               	goto	u724
   527     075B                     u710:
   528     075B  1683               	bsf	3,5	;RP0=1, select bank1
   529     075C  1303               	bcf	3,6	;RP1=0, select bank1
   530     075D  1095               	bcf	21,1	;volatile
   531     075E                     u724:
   532     075E  1895               	btfsc	21,1	;volatile
   533     075F  2F61               	goto	u721
   534     0760  2F65               	goto	u720
   535     0761                     u721:
   536     0761  1683               	bsf	3,5	;RP0=1, select bank1
   537     0762  1303               	bcf	3,6	;RP1=0, select bank1
   538     0763  1415               	bsf	21,0	;volatile
   539     0764  2F68               	goto	u734
   540     0765                     u720:
   541     0765  1683               	bsf	3,5	;RP0=1, select bank1
   542     0766  1303               	bcf	3,6	;RP1=0, select bank1
   543     0767  1015               	bcf	21,0	;volatile
   544     0768                     u734:
   545                           
   546                           ;BT8.c: 103:     TRISC = 0x00; TRISD = 0x00; TRISA = 0x00; TRISE = 0x00;
   547     0768  0187               	clrf	7	;volatile
   548     0769  0188               	clrf	8	;volatile
   549     076A  0185               	clrf	5	;volatile
   550     076B  0189               	clrf	9	;volatile
   551     076C                     l949:
   552                           
   553                           ;BT8.c: 104:     PORTC = 0xFF; PORTD = 0xFF; PORTA = 0xFF; PORTE = 0xFF;
   554     076C  30FF               	movlw	255
   555     076D  1283               	bcf	3,5	;RP0=0, select bank0
   556     076E  1303               	bcf	3,6	;RP1=0, select bank0
   557     076F  0087               	movwf	7	;volatile
   558     0770                     l951:
   559     0770  30FF               	movlw	255
   560     0771  0088               	movwf	8	;volatile
   561     0772                     l953:
   562     0772  30FF               	movlw	255
   563     0773  0085               	movwf	5	;volatile
   564     0774                     l955:
   565     0774  30FF               	movlw	255
   566     0775  0089               	movwf	9	;volatile
   567     0776                     l957:
   568                           
   569                           ;BT8.c: 109:     {;BT8.c: 110:         if(!RB0)
   570     0776  1283               	bcf	3,5	;RP0=0, select bank0
   571     0777  1303               	bcf	3,6	;RP1=0, select bank0
   572     0778  1806               	btfsc	6,0	;volatile
   573     0779  2F7B               	goto	u741
   574     077A  2F7C               	goto	u740
   575     077B                     u741:
   576     077B  2F9E               	goto	l77
   577     077C                     u740:
   578     077C                     l959:
   579                           
   580                           ;BT8.c: 111:         {;BT8.c: 112:             _delay((unsigned long)((5)*(4000000/4000.
      +                          0)));
   581     077C  3007               	movlw	7
   582     077D  1283               	bcf	3,5	;RP0=0, select bank0
   583     077E  1303               	bcf	3,6	;RP1=0, select bank0
   584     077F  00BC               	movwf	??_main+1
   585     0780  307C               	movlw	124
   586     0781  00BB               	movwf	??_main
   587     0782                     u807:
   588     0782  0BBB               	decfsz	??_main,f
   589     0783  2F82               	goto	u807
   590     0784  0BBC               	decfsz	??_main+1,f
   591     0785  2F82               	goto	u807
   592     0786  0000               	nop
   593     0787                     l78:	
   594                           ;BT8.c: 113:             while(!RB0);
   595                           
   596     0787  1283               	bcf	3,5	;RP0=0, select bank0
   597     0788  1303               	bcf	3,6	;RP1=0, select bank0
   598     0789  1C06               	btfss	6,0	;volatile
   599     078A  2F8C               	goto	u751
   600     078B  2F8D               	goto	u750
   601     078C                     u751:
   602     078C  2F87               	goto	l78
   603     078D                     u750:
   604     078D                     l961:
   605                           
   606                           ;BT8.c: 114:             _delay((unsigned long)((5)*(4000000/4000.0)));
   607     078D  3007               	movlw	7
   608     078E  1283               	bcf	3,5	;RP0=0, select bank0
   609     078F  1303               	bcf	3,6	;RP1=0, select bank0
   610     0790  00BC               	movwf	??_main+1
   611     0791  307C               	movlw	124
   612     0792  00BB               	movwf	??_main
   613     0793                     u817:
   614     0793  0BBB               	decfsz	??_main,f
   615     0794  2F93               	goto	u817
   616     0795  0BBC               	decfsz	??_main+1,f
   617     0796  2F93               	goto	u817
   618     0797  0000               	nop
   619     0798                     l963:
   620                           
   621                           ;BT8.c: 115:             choptat_IUH();
   622     0798  120A  118A  2536  120A  118A  	fcall	_choptat_IUH
   623                           
   624                           ;BT8.c: 116:          }
   625     079D  2F76               	goto	l957
   626     079E                     l77:	
   627                           ;BT8.c: 117:         else if(!RB1)
   628                           
   629     079E  1886               	btfsc	6,1	;volatile
   630     079F  2FA1               	goto	u761
   631     07A0  2FA2               	goto	u760
   632     07A1                     u761:
   633     07A1  2FC4               	goto	l82
   634     07A2                     u760:
   635     07A2                     l965:
   636                           
   637                           ;BT8.c: 118:         {;BT8.c: 119:             _delay((unsigned long)((5)*(4000000/4000.
      +                          0)));
   638     07A2  3007               	movlw	7
   639     07A3  1283               	bcf	3,5	;RP0=0, select bank0
   640     07A4  1303               	bcf	3,6	;RP1=0, select bank0
   641     07A5  00BC               	movwf	??_main+1
   642     07A6  307C               	movlw	124
   643     07A7  00BB               	movwf	??_main
   644     07A8                     u827:
   645     07A8  0BBB               	decfsz	??_main,f
   646     07A9  2FA8               	goto	u827
   647     07AA  0BBC               	decfsz	??_main+1,f
   648     07AB  2FA8               	goto	u827
   649     07AC  0000               	nop
   650     07AD                     l83:	
   651                           ;BT8.c: 120:             while(!RB1);
   652                           
   653     07AD  1283               	bcf	3,5	;RP0=0, select bank0
   654     07AE  1303               	bcf	3,6	;RP1=0, select bank0
   655     07AF  1C86               	btfss	6,1	;volatile
   656     07B0  2FB2               	goto	u771
   657     07B1  2FB3               	goto	u770
   658     07B2                     u771:
   659     07B2  2FAD               	goto	l83
   660     07B3                     u770:
   661     07B3                     l967:
   662                           
   663                           ;BT8.c: 121:             _delay((unsigned long)((5)*(4000000/4000.0)));
   664     07B3  3007               	movlw	7
   665     07B4  1283               	bcf	3,5	;RP0=0, select bank0
   666     07B5  1303               	bcf	3,6	;RP1=0, select bank0
   667     07B6  00BC               	movwf	??_main+1
   668     07B7  307C               	movlw	124
   669     07B8  00BB               	movwf	??_main
   670     07B9                     u837:
   671     07B9  0BBB               	decfsz	??_main,f
   672     07BA  2FB9               	goto	u837
   673     07BB  0BBC               	decfsz	??_main+1,f
   674     07BC  2FB9               	goto	u837
   675     07BD  0000               	nop
   676     07BE                     l969:
   677                           
   678                           ;BT8.c: 122:             dem00_123();
   679     07BE  120A  118A  26AE  120A  118A  	fcall	_dem00_123
   680                           
   681                           ;BT8.c: 123:          }
   682     07C3  2F76               	goto	l957
   683     07C4                     l82:	
   684                           ;BT8.c: 124:         else if(!RB2)
   685                           
   686     07C4  1906               	btfsc	6,2	;volatile
   687     07C5  2FC7               	goto	u781
   688     07C6  2FC8               	goto	u780
   689     07C7                     u781:
   690     07C7  2FEA               	goto	l81
   691     07C8                     u780:
   692     07C8                     l971:
   693                           
   694                           ;BT8.c: 125:         {;BT8.c: 126:             _delay((unsigned long)((5)*(4000000/4000.
      +                          0)));
   695     07C8  3007               	movlw	7
   696     07C9  1283               	bcf	3,5	;RP0=0, select bank0
   697     07CA  1303               	bcf	3,6	;RP1=0, select bank0
   698     07CB  00BC               	movwf	??_main+1
   699     07CC  307C               	movlw	124
   700     07CD  00BB               	movwf	??_main
   701     07CE                     u847:
   702     07CE  0BBB               	decfsz	??_main,f
   703     07CF  2FCE               	goto	u847
   704     07D0  0BBC               	decfsz	??_main+1,f
   705     07D1  2FCE               	goto	u847
   706     07D2  0000               	nop
   707     07D3                     l88:	
   708                           ;BT8.c: 127:             while(!RB2);
   709                           
   710     07D3  1283               	bcf	3,5	;RP0=0, select bank0
   711     07D4  1303               	bcf	3,6	;RP1=0, select bank0
   712     07D5  1D06               	btfss	6,2	;volatile
   713     07D6  2FD8               	goto	u791
   714     07D7  2FD9               	goto	u790
   715     07D8                     u791:
   716     07D8  2FD3               	goto	l88
   717     07D9                     u790:
   718     07D9                     l973:
   719                           
   720                           ;BT8.c: 128:             _delay((unsigned long)((5)*(4000000/4000.0)));
   721     07D9  3007               	movlw	7
   722     07DA  1283               	bcf	3,5	;RP0=0, select bank0
   723     07DB  1303               	bcf	3,6	;RP1=0, select bank0
   724     07DC  00BC               	movwf	??_main+1
   725     07DD  307C               	movlw	124
   726     07DE  00BB               	movwf	??_main
   727     07DF                     u857:
   728     07DF  0BBB               	decfsz	??_main,f
   729     07E0  2FDF               	goto	u857
   730     07E1  0BBC               	decfsz	??_main+1,f
   731     07E2  2FDF               	goto	u857
   732     07E3  0000               	nop
   733     07E4                     l975:
   734                           
   735                           ;BT8.c: 129:             dem999_00();
   736     07E4  120A  118A  262E  120A  118A  	fcall	_dem999_00
   737     07E9  2F76               	goto	l957
   738     07EA                     l81:
   739     07EA  2F76               	goto	l957
   740     07EB  120A  118A  2800   	ljmp	start
   741     07EE                     __end_of_main:
   742                           
   743                           	psect	text1
   744     062E                     __ptext1:	
   745 ;; *************** function _dem999_00 *****************
   746 ;; Defined at:
   747 ;;		line 70 in file "BT8.c"
   748 ;; Parameters:    Size  Location     Type
   749 ;;		None
   750 ;; Auto vars:     Size  Location     Type
   751 ;;  i               2    5[BANK0 ] int 
   752 ;;  donVi           1    4[BANK0 ] unsigned char 
   753 ;;  tram            1    3[BANK0 ] unsigned char 
   754 ;;  chuc            1    2[BANK0 ] unsigned char 
   755 ;; Return value:  Size  Location     Type
   756 ;;                  1    wreg      void 
   757 ;; Registers used:
   758 ;;		wreg, fsr0l, fsr0h, status,2, status,0, btemp+1, pclath, cstack
   759 ;; Tracked objects:
   760 ;;		On entry : 0/0
   761 ;;		On exit  : 0/0
   762 ;;		Unchanged: 0/0
   763 ;; Data sizes:     COMMON   BANK0   BANK1   BANK3   BANK2
   764 ;;      Params:         0       0       0       0       0
   765 ;;      Locals:         0       5       0       0       0
   766 ;;      Temps:          0       2       0       0       0
   767 ;;      Totals:         0       7       0       0       0
   768 ;;Total ram usage:        7 bytes
   769 ;; Hardware stack levels used: 1
   770 ;; Hardware stack levels required when called: 1
   771 ;; This function calls:
   772 ;;		___awdiv
   773 ;;		___awmod
   774 ;; This function is called by:
   775 ;;		_main
   776 ;; This function uses a non-reentrant model
   777 ;;
   778                           
   779     062E                     _dem999_00:	
   780                           ;psect for function _dem999_00
   781                           
   782     062E                     l919:	
   783                           ;incstack = 0
   784                           ; Regs used in _dem999_00: [wreg-fsr0h+status,2+status,0+btemp+1+pclath+cstack]
   785                           
   786                           
   787                           ;BT8.c: 72:     unsigned char donVi, chuc, tram;;BT8.c: 74:     for (int i = 999; i >= 0
      +                          ; i--) {
   788     062E  30E7               	movlw	231
   789     062F  1283               	bcf	3,5	;RP0=0, select bank0
   790     0630  1303               	bcf	3,6	;RP1=0, select bank0
   791     0631  00B9               	movwf	dem999_00@i
   792     0632  3003               	movlw	3
   793     0633  00BA               	movwf	dem999_00@i+1
   794     0634                     l925:
   795                           
   796                           ;BT8.c: 75:         donVi = i % 10;
   797     0634  300A               	movlw	10
   798     0635  00F8               	movwf	___awmod@divisor
   799     0636  3000               	movlw	0
   800     0637  00F9               	movwf	___awmod@divisor+1
   801     0638  083A               	movf	dem999_00@i+1,w
   802     0639  00FB               	movwf	___awmod@dividend+1
   803     063A  0839               	movf	dem999_00@i,w
   804     063B  00FA               	movwf	___awmod@dividend
   805     063C  120A  118A  256E  120A  118A  	fcall	___awmod
   806     0641  0878               	movf	?___awmod,w
   807     0642  1283               	bcf	3,5	;RP0=0, select bank0
   808     0643  1303               	bcf	3,6	;RP1=0, select bank0
   809     0644  00B8               	movwf	dem999_00@donVi
   810                           
   811                           ;BT8.c: 76:         chuc = (i / 10) % 10;
   812     0645  300A               	movlw	10
   813     0646  00F8               	movwf	___awmod@divisor
   814     0647  3000               	movlw	0
   815     0648  00F9               	movwf	___awmod@divisor+1
   816     0649  300A               	movlw	10
   817     064A  00F0               	movwf	___awdiv@divisor
   818     064B  3000               	movlw	0
   819     064C  00F1               	movwf	___awdiv@divisor+1
   820     064D  083A               	movf	dem999_00@i+1,w
   821     064E  00F3               	movwf	___awdiv@dividend+1
   822     064F  0839               	movf	dem999_00@i,w
   823     0650  00F2               	movwf	___awdiv@dividend
   824     0651  120A  118A  25C7  120A  118A  	fcall	___awdiv
   825     0656  0871               	movf	?___awdiv+1,w
   826     0657  00FB               	movwf	___awmod@dividend+1
   827     0658  0870               	movf	?___awdiv,w
   828     0659  00FA               	movwf	___awmod@dividend
   829     065A  120A  118A  256E  120A  118A  	fcall	___awmod
   830     065F  0878               	movf	?___awmod,w
   831     0660  1283               	bcf	3,5	;RP0=0, select bank0
   832     0661  1303               	bcf	3,6	;RP1=0, select bank0
   833     0662  00B6               	movwf	dem999_00@chuc
   834                           
   835                           ;BT8.c: 77:         tram = i / 100;
   836     0663  3064               	movlw	100
   837     0664  00F0               	movwf	___awdiv@divisor
   838     0665  3000               	movlw	0
   839     0666  00F1               	movwf	___awdiv@divisor+1
   840     0667  083A               	movf	dem999_00@i+1,w
   841     0668  00F3               	movwf	___awdiv@dividend+1
   842     0669  0839               	movf	dem999_00@i,w
   843     066A  00F2               	movwf	___awdiv@dividend
   844     066B  120A  118A  25C7  120A  118A  	fcall	___awdiv
   845     0670  0870               	movf	?___awdiv,w
   846     0671  1283               	bcf	3,5	;RP0=0, select bank0
   847     0672  1303               	bcf	3,6	;RP1=0, select bank0
   848     0673  00B7               	movwf	dem999_00@tram
   849     0674                     l927:
   850                           
   851                           ;BT8.c: 78:         if( donVi == 0 || donVi == 1 || donVi == 7)
   852     0674  0838               	movf	dem999_00@donVi,w
   853     0675  1903               	btfsc	3,2
   854     0676  2E78               	goto	u641
   855     0677  2E79               	goto	u640
   856     0678                     u641:
   857     0678  2E84               	goto	l69
   858     0679                     u640:
   859     0679                     l929:
   860     0679  0338               	decf	dem999_00@donVi,w
   861     067A  1903               	btfsc	3,2
   862     067B  2E7D               	goto	u651
   863     067C  2E7E               	goto	u650
   864     067D                     u651:
   865     067D  2E84               	goto	l69
   866     067E                     u650:
   867     067E                     l931:
   868     067E  3007               	movlw	7
   869     067F  0638               	xorwf	dem999_00@donVi,w
   870     0680  1D03               	btfss	3,2
   871     0681  2E83               	goto	u661
   872     0682  2E84               	goto	u660
   873     0683                     u661:
   874     0683  2E86               	goto	l67
   875     0684                     u660:
   876     0684                     l69:
   877                           
   878                           ;BT8.c: 79:         {;BT8.c: 80:             RE0 = 1;
   879     0684  1409               	bsf	9,0	;volatile
   880                           
   881                           ;BT8.c: 81:         }else
   882     0685  2E87               	goto	l933
   883     0686                     l67:
   884                           
   885                           ;BT8.c: 82:         {;BT8.c: 83:              RE0 = 0;
   886     0686  1009               	bcf	9,0	;volatile
   887     0687                     l933:
   888                           
   889                           ;BT8.c: 85:         PORTC = MaLed[tram];
   890     0687  0837               	movf	dem999_00@tram,w
   891     0688  3E2A               	addlw	(low (_MaLed| 0))& (0+255)
   892     0689  0084               	movwf	4
   893     068A  1383               	bcf	3,7	;select IRP bank0
   894     068B  0800               	movf	0,w
   895     068C  0087               	movwf	7	;volatile
   896                           
   897                           ;BT8.c: 86:         PORTD = MaLed[chuc];
   898     068D  0836               	movf	dem999_00@chuc,w
   899     068E  3E2A               	addlw	(low (_MaLed| 0))& (0+255)
   900     068F  0084               	movwf	4
   901     0690  0800               	movf	0,w
   902     0691  0088               	movwf	8	;volatile
   903                           
   904                           ;BT8.c: 87:         PORTA = MaLed[donVi];
   905     0692  0838               	movf	dem999_00@donVi,w
   906     0693  3E2A               	addlw	(low (_MaLed| 0))& (0+255)
   907     0694  0084               	movwf	4
   908     0695  0800               	movf	0,w
   909     0696  0085               	movwf	5	;volatile
   910     0697                     l935:
   911                           
   912                           ;BT8.c: 88:         _delay((unsigned long)((100)*(4000000/4000.0)));
   913     0697  3082               	movlw	130
   914     0698  1283               	bcf	3,5	;RP0=0, select bank0
   915     0699  1303               	bcf	3,6	;RP1=0, select bank0
   916     069A  00B5               	movwf	??_dem999_00+1
   917     069B  30DD               	movlw	221
   918     069C  00B4               	movwf	??_dem999_00
   919     069D                     u867:
   920     069D  0BB4               	decfsz	??_dem999_00,f
   921     069E  2E9D               	goto	u867
   922     069F  0BB5               	decfsz	??_dem999_00+1,f
   923     06A0  2E9D               	goto	u867
   924     06A1                     l937:
   925                           
   926                           ;BT8.c: 89:     }
   927     06A1  30FF               	movlw	255
   928     06A2  1283               	bcf	3,5	;RP0=0, select bank0
   929     06A3  1303               	bcf	3,6	;RP1=0, select bank0
   930     06A4  07B9               	addwf	dem999_00@i,f
   931     06A5  1803               	skipnc
   932     06A6  0ABA               	incf	dem999_00@i+1,f
   933     06A7  30FF               	movlw	255
   934     06A8  07BA               	addwf	dem999_00@i+1,f
   935     06A9                     l939:
   936     06A9  1FBA               	btfss	dem999_00@i+1,7
   937     06AA  2EAC               	goto	u671
   938     06AB  2EAD               	goto	u670
   939     06AC                     u671:
   940     06AC  2E34               	goto	l925
   941     06AD                     u670:
   942     06AD                     l71:
   943     06AD  0008               	return
   944     06AE                     __end_of_dem999_00:
   945                           
   946                           	psect	text2
   947     06AE                     __ptext2:	
   948 ;; *************** function _dem00_123 *****************
   949 ;; Defined at:
   950 ;;		line 45 in file "BT8.c"
   951 ;; Parameters:    Size  Location     Type
   952 ;;		None
   953 ;; Auto vars:     Size  Location     Type
   954 ;;  i               2    5[BANK0 ] int 
   955 ;;  donVi           1    4[BANK0 ] unsigned char 
   956 ;;  tram            1    3[BANK0 ] unsigned char 
   957 ;;  chuc            1    2[BANK0 ] unsigned char 
   958 ;; Return value:  Size  Location     Type
   959 ;;                  1    wreg      void 
   960 ;; Registers used:
   961 ;;		wreg, fsr0l, fsr0h, status,2, status,0, btemp+1, pclath, cstack
   962 ;; Tracked objects:
   963 ;;		On entry : 0/0
   964 ;;		On exit  : 0/0
   965 ;;		Unchanged: 0/0
   966 ;; Data sizes:     COMMON   BANK0   BANK1   BANK3   BANK2
   967 ;;      Params:         0       0       0       0       0
   968 ;;      Locals:         0       5       0       0       0
   969 ;;      Temps:          0       2       0       0       0
   970 ;;      Totals:         0       7       0       0       0
   971 ;;Total ram usage:        7 bytes
   972 ;; Hardware stack levels used: 1
   973 ;; Hardware stack levels required when called: 1
   974 ;; This function calls:
   975 ;;		___awdiv
   976 ;;		___awmod
   977 ;; This function is called by:
   978 ;;		_main
   979 ;; This function uses a non-reentrant model
   980 ;;
   981                           
   982     06AE                     _dem00_123:	
   983                           ;psect for function _dem00_123
   984                           
   985     06AE                     l897:	
   986                           ;incstack = 0
   987                           ; Regs used in _dem00_123: [wreg-fsr0h+status,2+status,0+btemp+1+pclath+cstack]
   988                           
   989                           
   990                           ;BT8.c: 47:     unsigned char donVi, chuc, tram;;BT8.c: 49:     for (int i = 0; i <= 123
      +                          ; i++) {
   991     06AE  1283               	bcf	3,5	;RP0=0, select bank0
   992     06AF  1303               	bcf	3,6	;RP1=0, select bank0
   993     06B0  01B9               	clrf	dem00_123@i
   994     06B1  01BA               	clrf	dem00_123@i+1
   995     06B2                     l903:
   996                           
   997                           ;BT8.c: 50:         donVi = i % 10;
   998     06B2  300A               	movlw	10
   999     06B3  00F8               	movwf	___awmod@divisor
  1000     06B4  3000               	movlw	0
  1001     06B5  00F9               	movwf	___awmod@divisor+1
  1002     06B6  1283               	bcf	3,5	;RP0=0, select bank0
  1003     06B7  1303               	bcf	3,6	;RP1=0, select bank0
  1004     06B8  083A               	movf	dem00_123@i+1,w
  1005     06B9  00FB               	movwf	___awmod@dividend+1
  1006     06BA  0839               	movf	dem00_123@i,w
  1007     06BB  00FA               	movwf	___awmod@dividend
  1008     06BC  120A  118A  256E  120A  118A  	fcall	___awmod
  1009     06C1  0878               	movf	?___awmod,w
  1010     06C2  1283               	bcf	3,5	;RP0=0, select bank0
  1011     06C3  1303               	bcf	3,6	;RP1=0, select bank0
  1012     06C4  00B8               	movwf	dem00_123@donVi
  1013                           
  1014                           ;BT8.c: 51:         chuc = (i / 10) % 10;
  1015     06C5  300A               	movlw	10
  1016     06C6  00F8               	movwf	___awmod@divisor
  1017     06C7  3000               	movlw	0
  1018     06C8  00F9               	movwf	___awmod@divisor+1
  1019     06C9  300A               	movlw	10
  1020     06CA  00F0               	movwf	___awdiv@divisor
  1021     06CB  3000               	movlw	0
  1022     06CC  00F1               	movwf	___awdiv@divisor+1
  1023     06CD  083A               	movf	dem00_123@i+1,w
  1024     06CE  00F3               	movwf	___awdiv@dividend+1
  1025     06CF  0839               	movf	dem00_123@i,w
  1026     06D0  00F2               	movwf	___awdiv@dividend
  1027     06D1  120A  118A  25C7  120A  118A  	fcall	___awdiv
  1028     06D6  0871               	movf	?___awdiv+1,w
  1029     06D7  00FB               	movwf	___awmod@dividend+1
  1030     06D8  0870               	movf	?___awdiv,w
  1031     06D9  00FA               	movwf	___awmod@dividend
  1032     06DA  120A  118A  256E  120A  118A  	fcall	___awmod
  1033     06DF  0878               	movf	?___awmod,w
  1034     06E0  1283               	bcf	3,5	;RP0=0, select bank0
  1035     06E1  1303               	bcf	3,6	;RP1=0, select bank0
  1036     06E2  00B6               	movwf	dem00_123@chuc
  1037                           
  1038                           ;BT8.c: 52:         tram = i / 100;
  1039     06E3  3064               	movlw	100
  1040     06E4  00F0               	movwf	___awdiv@divisor
  1041     06E5  3000               	movlw	0
  1042     06E6  00F1               	movwf	___awdiv@divisor+1
  1043     06E7  083A               	movf	dem00_123@i+1,w
  1044     06E8  00F3               	movwf	___awdiv@dividend+1
  1045     06E9  0839               	movf	dem00_123@i,w
  1046     06EA  00F2               	movwf	___awdiv@dividend
  1047     06EB  120A  118A  25C7  120A  118A  	fcall	___awdiv
  1048     06F0  0870               	movf	?___awdiv,w
  1049     06F1  1283               	bcf	3,5	;RP0=0, select bank0
  1050     06F2  1303               	bcf	3,6	;RP1=0, select bank0
  1051     06F3  00B7               	movwf	dem00_123@tram
  1052     06F4                     l905:
  1053                           
  1054                           ;BT8.c: 54:         if( donVi == 0 || donVi == 1 || donVi == 7)
  1055     06F4  0838               	movf	dem00_123@donVi,w
  1056     06F5  1903               	btfsc	3,2
  1057     06F6  2EF8               	goto	u601
  1058     06F7  2EF9               	goto	u600
  1059     06F8                     u601:
  1060     06F8  2F04               	goto	l60
  1061     06F9                     u600:
  1062     06F9                     l907:
  1063     06F9  0338               	decf	dem00_123@donVi,w
  1064     06FA  1903               	btfsc	3,2
  1065     06FB  2EFD               	goto	u611
  1066     06FC  2EFE               	goto	u610
  1067     06FD                     u611:
  1068     06FD  2F04               	goto	l60
  1069     06FE                     u610:
  1070     06FE                     l909:
  1071     06FE  3007               	movlw	7
  1072     06FF  0638               	xorwf	dem00_123@donVi,w
  1073     0700  1D03               	btfss	3,2
  1074     0701  2F03               	goto	u621
  1075     0702  2F04               	goto	u620
  1076     0703                     u621:
  1077     0703  2F06               	goto	l58
  1078     0704                     u620:
  1079     0704                     l60:
  1080                           
  1081                           ;BT8.c: 55:         {;BT8.c: 56:             RE0 = 1;
  1082     0704  1409               	bsf	9,0	;volatile
  1083                           
  1084                           ;BT8.c: 57:         }else
  1085     0705  2F07               	goto	l911
  1086     0706                     l58:
  1087                           
  1088                           ;BT8.c: 58:         {;BT8.c: 59:              RE0 = 0;
  1089     0706  1009               	bcf	9,0	;volatile
  1090     0707                     l911:
  1091                           
  1092                           ;BT8.c: 62:         PORTC = MaLed[tram];
  1093     0707  0837               	movf	dem00_123@tram,w
  1094     0708  3E2A               	addlw	(low (_MaLed| 0))& (0+255)
  1095     0709  0084               	movwf	4
  1096     070A  1383               	bcf	3,7	;select IRP bank0
  1097     070B  0800               	movf	0,w
  1098     070C  0087               	movwf	7	;volatile
  1099                           
  1100                           ;BT8.c: 63:         PORTD = MaLed[chuc];
  1101     070D  0836               	movf	dem00_123@chuc,w
  1102     070E  3E2A               	addlw	(low (_MaLed| 0))& (0+255)
  1103     070F  0084               	movwf	4
  1104     0710  0800               	movf	0,w
  1105     0711  0088               	movwf	8	;volatile
  1106                           
  1107                           ;BT8.c: 64:         PORTA = MaLed[donVi];
  1108     0712  0838               	movf	dem00_123@donVi,w
  1109     0713  3E2A               	addlw	(low (_MaLed| 0))& (0+255)
  1110     0714  0084               	movwf	4
  1111     0715  0800               	movf	0,w
  1112     0716  0085               	movwf	5	;volatile
  1113     0717                     l913:
  1114                           
  1115                           ;BT8.c: 66:         _delay((unsigned long)((100)*(4000000/4000.0)));
  1116     0717  3082               	movlw	130
  1117     0718  1283               	bcf	3,5	;RP0=0, select bank0
  1118     0719  1303               	bcf	3,6	;RP1=0, select bank0
  1119     071A  00B5               	movwf	??_dem00_123+1
  1120     071B  30DD               	movlw	221
  1121     071C  00B4               	movwf	??_dem00_123
  1122     071D                     u877:
  1123     071D  0BB4               	decfsz	??_dem00_123,f
  1124     071E  2F1D               	goto	u877
  1125     071F  0BB5               	decfsz	??_dem00_123+1,f
  1126     0720  2F1D               	goto	u877
  1127     0721                     l915:
  1128                           
  1129                           ;BT8.c: 67:     }
  1130     0721  3001               	movlw	1
  1131     0722  1283               	bcf	3,5	;RP0=0, select bank0
  1132     0723  1303               	bcf	3,6	;RP1=0, select bank0
  1133     0724  07B9               	addwf	dem00_123@i,f
  1134     0725  1803               	skipnc
  1135     0726  0ABA               	incf	dem00_123@i+1,f
  1136     0727  3000               	movlw	0
  1137     0728  07BA               	addwf	dem00_123@i+1,f
  1138     0729                     l917:
  1139     0729  083A               	movf	dem00_123@i+1,w
  1140     072A  3A80               	xorlw	128
  1141     072B  00FF               	movwf	btemp+1
  1142     072C  3080               	movlw	128
  1143     072D  027F               	subwf	btemp+1,w
  1144     072E  1D03               	skipz
  1145     072F  2F32               	goto	u635
  1146     0730  307C               	movlw	124
  1147     0731  0239               	subwf	dem00_123@i,w
  1148     0732                     u635:
  1149     0732  1C03               	skipc
  1150     0733  2F35               	goto	u631
  1151     0734  2F36               	goto	u630
  1152     0735                     u631:
  1153     0735  2EB2               	goto	l903
  1154     0736                     u630:
  1155     0736                     l62:
  1156     0736  0008               	return
  1157     0737                     __end_of_dem00_123:
  1158                           
  1159                           	psect	text3
  1160     056E                     __ptext3:	
  1161 ;; *************** function ___awmod *****************
  1162 ;; Defined at:
  1163 ;;		line 5 in file "C:\Program Files\Microchip\xc8\v2.46\pic\sources\c99\common\awmod.c"
  1164 ;; Parameters:    Size  Location     Type
  1165 ;;  divisor         2    8[COMMON] int 
  1166 ;;  dividend        2   10[COMMON] int 
  1167 ;; Auto vars:     Size  Location     Type
  1168 ;;  sign            1   13[COMMON] unsigned char 
  1169 ;;  counter         1   12[COMMON] unsigned char 
  1170 ;; Return value:  Size  Location     Type
  1171 ;;                  2    8[COMMON] int 
  1172 ;; Registers used:
  1173 ;;		wreg, status,2, status,0, btemp+1
  1174 ;; Tracked objects:
  1175 ;;		On entry : 0/0
  1176 ;;		On exit  : 0/0
  1177 ;;		Unchanged: 0/0
  1178 ;; Data sizes:     COMMON   BANK0   BANK1   BANK3   BANK2
  1179 ;;      Params:         4       0       0       0       0
  1180 ;;      Locals:         2       0       0       0       0
  1181 ;;      Temps:          0       0       0       0       0
  1182 ;;      Totals:         6       0       0       0       0
  1183 ;;Total ram usage:        6 bytes
  1184 ;; Hardware stack levels used: 1
  1185 ;; This function calls:
  1186 ;;		Nothing
  1187 ;; This function is called by:
  1188 ;;		_dem00_123
  1189 ;;		_dem999_00
  1190 ;; This function uses a non-reentrant model
  1191 ;;
  1192                           
  1193     056E                     ___awmod:	
  1194                           ;psect for function ___awmod
  1195                           
  1196     056E                     l859:	
  1197                           ;incstack = 0
  1198                           ; Regs used in ___awmod: [wreg+status,2+status,0+btemp+1]
  1199                           
  1200     056E  01FD               	clrf	___awmod@sign
  1201     056F                     l861:
  1202     056F  1FFB               	btfss	___awmod@dividend+1,7
  1203     0570  2D72               	goto	u511
  1204     0571  2D73               	goto	u510
  1205     0572                     u511:
  1206     0572  2D7A               	goto	l867
  1207     0573                     u510:
  1208     0573                     l863:
  1209     0573  09FA               	comf	___awmod@dividend,f
  1210     0574  09FB               	comf	___awmod@dividend+1,f
  1211     0575  0AFA               	incf	___awmod@dividend,f
  1212     0576  1903               	skipnz
  1213     0577  0AFB               	incf	___awmod@dividend+1,f
  1214     0578                     l865:
  1215     0578  01FD               	clrf	___awmod@sign
  1216     0579  0AFD               	incf	___awmod@sign,f
  1217     057A                     l867:
  1218     057A  1FF9               	btfss	___awmod@divisor+1,7
  1219     057B  2D7D               	goto	u521
  1220     057C  2D7E               	goto	u520
  1221     057D                     u521:
  1222     057D  2D83               	goto	l871
  1223     057E                     u520:
  1224     057E                     l869:
  1225     057E  09F8               	comf	___awmod@divisor,f
  1226     057F  09F9               	comf	___awmod@divisor+1,f
  1227     0580  0AF8               	incf	___awmod@divisor,f
  1228     0581  1903               	skipnz
  1229     0582  0AF9               	incf	___awmod@divisor+1,f
  1230     0583                     l871:
  1231     0583  0878               	movf	___awmod@divisor,w
  1232     0584  0479               	iorwf	___awmod@divisor+1,w
  1233     0585  1903               	btfsc	3,2
  1234     0586  2D88               	goto	u531
  1235     0587  2D89               	goto	u530
  1236     0588                     u531:
  1237     0588  2DB8               	goto	l889
  1238     0589                     u530:
  1239     0589                     l873:
  1240     0589  01FC               	clrf	___awmod@counter
  1241     058A  0AFC               	incf	___awmod@counter,f
  1242     058B  2D97               	goto	l879
  1243     058C                     l875:
  1244     058C  3001               	movlw	1
  1245     058D                     u545:
  1246     058D  1003               	clrc
  1247     058E  0DF8               	rlf	___awmod@divisor,f
  1248     058F  0DF9               	rlf	___awmod@divisor+1,f
  1249     0590  3EFF               	addlw	-1
  1250     0591  1D03               	skipz
  1251     0592  2D8D               	goto	u545
  1252     0593                     l877:
  1253     0593  3001               	movlw	1
  1254     0594  00FF               	movwf	btemp+1
  1255     0595  087F               	movf	btemp+1,w
  1256     0596  07FC               	addwf	___awmod@counter,f
  1257     0597                     l879:
  1258     0597  1FF9               	btfss	___awmod@divisor+1,7
  1259     0598  2D9A               	goto	u551
  1260     0599  2D9B               	goto	u550
  1261     059A                     u551:
  1262     059A  2D8C               	goto	l875
  1263     059B                     u550:
  1264     059B                     l881:
  1265     059B  0879               	movf	___awmod@divisor+1,w
  1266     059C  027B               	subwf	___awmod@dividend+1,w
  1267     059D  1D03               	skipz
  1268     059E  2DA1               	goto	u565
  1269     059F  0878               	movf	___awmod@divisor,w
  1270     05A0  027A               	subwf	___awmod@dividend,w
  1271     05A1                     u565:
  1272     05A1  1C03               	skipc
  1273     05A2  2DA4               	goto	u561
  1274     05A3  2DA5               	goto	u560
  1275     05A4                     u561:
  1276     05A4  2DAB               	goto	l885
  1277     05A5                     u560:
  1278     05A5                     l883:
  1279     05A5  0878               	movf	___awmod@divisor,w
  1280     05A6  02FA               	subwf	___awmod@dividend,f
  1281     05A7  0879               	movf	___awmod@divisor+1,w
  1282     05A8  1C03               	skipc
  1283     05A9  03FB               	decf	___awmod@dividend+1,f
  1284     05AA  02FB               	subwf	___awmod@dividend+1,f
  1285     05AB                     l885:
  1286     05AB  3001               	movlw	1
  1287     05AC                     u575:
  1288     05AC  1003               	clrc
  1289     05AD  0CF9               	rrf	___awmod@divisor+1,f
  1290     05AE  0CF8               	rrf	___awmod@divisor,f
  1291     05AF  3EFF               	addlw	-1
  1292     05B0  1D03               	skipz
  1293     05B1  2DAC               	goto	u575
  1294     05B2                     l887:
  1295     05B2  3001               	movlw	1
  1296     05B3  02FC               	subwf	___awmod@counter,f
  1297     05B4  1D03               	btfss	3,2
  1298     05B5  2DB7               	goto	u581
  1299     05B6  2DB8               	goto	u580
  1300     05B7                     u581:
  1301     05B7  2D9B               	goto	l881
  1302     05B8                     u580:
  1303     05B8                     l889:
  1304     05B8  087D               	movf	___awmod@sign,w
  1305     05B9  1903               	btfsc	3,2
  1306     05BA  2DBC               	goto	u591
  1307     05BB  2DBD               	goto	u590
  1308     05BC                     u591:
  1309     05BC  2DC2               	goto	l893
  1310     05BD                     u590:
  1311     05BD                     l891:
  1312     05BD  09FA               	comf	___awmod@dividend,f
  1313     05BE  09FB               	comf	___awmod@dividend+1,f
  1314     05BF  0AFA               	incf	___awmod@dividend,f
  1315     05C0  1903               	skipnz
  1316     05C1  0AFB               	incf	___awmod@dividend+1,f
  1317     05C2                     l893:
  1318     05C2  087B               	movf	___awmod@dividend+1,w
  1319     05C3  00F9               	movwf	?___awmod+1
  1320     05C4  087A               	movf	___awmod@dividend,w
  1321     05C5  00F8               	movwf	?___awmod
  1322     05C6                     l345:
  1323     05C6  0008               	return
  1324     05C7                     __end_of___awmod:
  1325                           
  1326                           	psect	text4
  1327     05C7                     __ptext4:	
  1328 ;; *************** function ___awdiv *****************
  1329 ;; Defined at:
  1330 ;;		line 5 in file "C:\Program Files\Microchip\xc8\v2.46\pic\sources\c99\common\awdiv.c"
  1331 ;; Parameters:    Size  Location     Type
  1332 ;;  divisor         2    0[COMMON] int 
  1333 ;;  dividend        2    2[COMMON] int 
  1334 ;; Auto vars:     Size  Location     Type
  1335 ;;  quotient        2    6[COMMON] int 
  1336 ;;  sign            1    5[COMMON] unsigned char 
  1337 ;;  counter         1    4[COMMON] unsigned char 
  1338 ;; Return value:  Size  Location     Type
  1339 ;;                  2    0[COMMON] int 
  1340 ;; Registers used:
  1341 ;;		wreg, status,2, status,0, btemp+1
  1342 ;; Tracked objects:
  1343 ;;		On entry : 0/0
  1344 ;;		On exit  : 0/0
  1345 ;;		Unchanged: 0/0
  1346 ;; Data sizes:     COMMON   BANK0   BANK1   BANK3   BANK2
  1347 ;;      Params:         4       0       0       0       0
  1348 ;;      Locals:         4       0       0       0       0
  1349 ;;      Temps:          0       0       0       0       0
  1350 ;;      Totals:         8       0       0       0       0
  1351 ;;Total ram usage:        8 bytes
  1352 ;; Hardware stack levels used: 1
  1353 ;; This function calls:
  1354 ;;		Nothing
  1355 ;; This function is called by:
  1356 ;;		_dem00_123
  1357 ;;		_dem999_00
  1358 ;; This function uses a non-reentrant model
  1359 ;;
  1360                           
  1361     05C7                     ___awdiv:	
  1362                           ;psect for function ___awdiv
  1363                           
  1364     05C7                     l815:	
  1365                           ;incstack = 0
  1366                           ; Regs used in ___awdiv: [wreg+status,2+status,0+btemp+1]
  1367                           
  1368     05C7  01F5               	clrf	___awdiv@sign
  1369     05C8                     l817:
  1370     05C8  1FF1               	btfss	___awdiv@divisor+1,7
  1371     05C9  2DCB               	goto	u411
  1372     05CA  2DCC               	goto	u410
  1373     05CB                     u411:
  1374     05CB  2DD3               	goto	l823
  1375     05CC                     u410:
  1376     05CC                     l819:
  1377     05CC  09F0               	comf	___awdiv@divisor,f
  1378     05CD  09F1               	comf	___awdiv@divisor+1,f
  1379     05CE  0AF0               	incf	___awdiv@divisor,f
  1380     05CF  1903               	skipnz
  1381     05D0  0AF1               	incf	___awdiv@divisor+1,f
  1382     05D1                     l821:
  1383     05D1  01F5               	clrf	___awdiv@sign
  1384     05D2  0AF5               	incf	___awdiv@sign,f
  1385     05D3                     l823:
  1386     05D3  1FF3               	btfss	___awdiv@dividend+1,7
  1387     05D4  2DD6               	goto	u421
  1388     05D5  2DD7               	goto	u420
  1389     05D6                     u421:
  1390     05D6  2DE0               	goto	l829
  1391     05D7                     u420:
  1392     05D7                     l825:
  1393     05D7  09F2               	comf	___awdiv@dividend,f
  1394     05D8  09F3               	comf	___awdiv@dividend+1,f
  1395     05D9  0AF2               	incf	___awdiv@dividend,f
  1396     05DA  1903               	skipnz
  1397     05DB  0AF3               	incf	___awdiv@dividend+1,f
  1398     05DC                     l827:
  1399     05DC  3001               	movlw	1
  1400     05DD  00FF               	movwf	btemp+1
  1401     05DE  087F               	movf	btemp+1,w
  1402     05DF  06F5               	xorwf	___awdiv@sign,f
  1403     05E0                     l829:
  1404     05E0  01F6               	clrf	___awdiv@quotient
  1405     05E1  01F7               	clrf	___awdiv@quotient+1
  1406     05E2                     l831:
  1407     05E2  0870               	movf	___awdiv@divisor,w
  1408     05E3  0471               	iorwf	___awdiv@divisor+1,w
  1409     05E4  1903               	btfsc	3,2
  1410     05E5  2DE7               	goto	u431
  1411     05E6  2DE8               	goto	u430
  1412     05E7                     u431:
  1413     05E7  2E1F               	goto	l851
  1414     05E8                     u430:
  1415     05E8                     l833:
  1416     05E8  01F4               	clrf	___awdiv@counter
  1417     05E9  0AF4               	incf	___awdiv@counter,f
  1418     05EA  2DF6               	goto	l839
  1419     05EB                     l835:
  1420     05EB  3001               	movlw	1
  1421     05EC                     u445:
  1422     05EC  1003               	clrc
  1423     05ED  0DF0               	rlf	___awdiv@divisor,f
  1424     05EE  0DF1               	rlf	___awdiv@divisor+1,f
  1425     05EF  3EFF               	addlw	-1
  1426     05F0  1D03               	skipz
  1427     05F1  2DEC               	goto	u445
  1428     05F2                     l837:
  1429     05F2  3001               	movlw	1
  1430     05F3  00FF               	movwf	btemp+1
  1431     05F4  087F               	movf	btemp+1,w
  1432     05F5  07F4               	addwf	___awdiv@counter,f
  1433     05F6                     l839:
  1434     05F6  1FF1               	btfss	___awdiv@divisor+1,7
  1435     05F7  2DF9               	goto	u451
  1436     05F8  2DFA               	goto	u450
  1437     05F9                     u451:
  1438     05F9  2DEB               	goto	l835
  1439     05FA                     u450:
  1440     05FA                     l841:
  1441     05FA  3001               	movlw	1
  1442     05FB                     u465:
  1443     05FB  1003               	clrc
  1444     05FC  0DF6               	rlf	___awdiv@quotient,f
  1445     05FD  0DF7               	rlf	___awdiv@quotient+1,f
  1446     05FE  3EFF               	addlw	-1
  1447     05FF  1D03               	skipz
  1448     0600  2DFB               	goto	u465
  1449     0601  0871               	movf	___awdiv@divisor+1,w
  1450     0602  0273               	subwf	___awdiv@dividend+1,w
  1451     0603  1D03               	skipz
  1452     0604  2E07               	goto	u475
  1453     0605  0870               	movf	___awdiv@divisor,w
  1454     0606  0272               	subwf	___awdiv@dividend,w
  1455     0607                     u475:
  1456     0607  1C03               	skipc
  1457     0608  2E0A               	goto	u471
  1458     0609  2E0B               	goto	u470
  1459     060A                     u471:
  1460     060A  2E12               	goto	l847
  1461     060B                     u470:
  1462     060B                     l843:
  1463     060B  0870               	movf	___awdiv@divisor,w
  1464     060C  02F2               	subwf	___awdiv@dividend,f
  1465     060D  0871               	movf	___awdiv@divisor+1,w
  1466     060E  1C03               	skipc
  1467     060F  03F3               	decf	___awdiv@dividend+1,f
  1468     0610  02F3               	subwf	___awdiv@dividend+1,f
  1469     0611                     l845:
  1470     0611  1476               	bsf	___awdiv@quotient,0
  1471     0612                     l847:
  1472     0612  3001               	movlw	1
  1473     0613                     u485:
  1474     0613  1003               	clrc
  1475     0614  0CF1               	rrf	___awdiv@divisor+1,f
  1476     0615  0CF0               	rrf	___awdiv@divisor,f
  1477     0616  3EFF               	addlw	-1
  1478     0617  1D03               	skipz
  1479     0618  2E13               	goto	u485
  1480     0619                     l849:
  1481     0619  3001               	movlw	1
  1482     061A  02F4               	subwf	___awdiv@counter,f
  1483     061B  1D03               	btfss	3,2
  1484     061C  2E1E               	goto	u491
  1485     061D  2E1F               	goto	u490
  1486     061E                     u491:
  1487     061E  2DFA               	goto	l841
  1488     061F                     u490:
  1489     061F                     l851:
  1490     061F  0875               	movf	___awdiv@sign,w
  1491     0620  1903               	btfsc	3,2
  1492     0621  2E23               	goto	u501
  1493     0622  2E24               	goto	u500
  1494     0623                     u501:
  1495     0623  2E29               	goto	l855
  1496     0624                     u500:
  1497     0624                     l853:
  1498     0624  09F6               	comf	___awdiv@quotient,f
  1499     0625  09F7               	comf	___awdiv@quotient+1,f
  1500     0626  0AF6               	incf	___awdiv@quotient,f
  1501     0627  1903               	skipnz
  1502     0628  0AF7               	incf	___awdiv@quotient+1,f
  1503     0629                     l855:
  1504     0629  0877               	movf	___awdiv@quotient+1,w
  1505     062A  00F1               	movwf	?___awdiv+1
  1506     062B  0876               	movf	___awdiv@quotient,w
  1507     062C  00F0               	movwf	?___awdiv
  1508     062D                     l332:
  1509     062D  0008               	return
  1510     062E                     __end_of___awdiv:
  1511                           
  1512                           	psect	text5
  1513     0536                     __ptext5:	
  1514 ;; *************** function _choptat_IUH *****************
  1515 ;; Defined at:
  1516 ;;		line 24 in file "BT8.c"
  1517 ;; Parameters:    Size  Location     Type
  1518 ;;		None
  1519 ;; Auto vars:     Size  Location     Type
  1520 ;;  i               1    3[COMMON] unsigned char 
  1521 ;;  j               1    0        unsigned char 
  1522 ;; Return value:  Size  Location     Type
  1523 ;;                  1    wreg      void 
  1524 ;; Registers used:
  1525 ;;		wreg, status,2, status,0, btemp+1
  1526 ;; Tracked objects:
  1527 ;;		On entry : 0/0
  1528 ;;		On exit  : 0/0
  1529 ;;		Unchanged: 0/0
  1530 ;; Data sizes:     COMMON   BANK0   BANK1   BANK3   BANK2
  1531 ;;      Params:         0       0       0       0       0
  1532 ;;      Locals:         1       0       0       0       0
  1533 ;;      Temps:          3       0       0       0       0
  1534 ;;      Totals:         4       0       0       0       0
  1535 ;;Total ram usage:        4 bytes
  1536 ;; Hardware stack levels used: 1
  1537 ;; This function calls:
  1538 ;;		Nothing
  1539 ;; This function is called by:
  1540 ;;		_main
  1541 ;; This function uses a non-reentrant model
  1542 ;;
  1543                           
  1544     0536                     _choptat_IUH:	
  1545                           ;psect for function _choptat_IUH
  1546                           
  1547     0536                     l719:	
  1548                           ;incstack = 0
  1549                           ; Regs used in _choptat_IUH: [wreg+status,2+status,0+btemp+1]
  1550                           
  1551                           
  1552                           ;BT8.c: 26:     unsigned char i,j;;BT8.c: 27:     for(i = 0; i<3; i++)
  1553     0536  01F3               	clrf	choptat_IUH@i
  1554     0537                     l725:
  1555                           
  1556                           ;BT8.c: 28:     {;BT8.c: 29:         PORTC = 0xF9;
  1557     0537  30F9               	movlw	249
  1558     0538  1283               	bcf	3,5	;RP0=0, select bank0
  1559     0539  1303               	bcf	3,6	;RP1=0, select bank0
  1560     053A  0087               	movwf	7	;volatile
  1561                           
  1562                           ;BT8.c: 30:         PORTD = 0xC1;
  1563     053B  30C1               	movlw	193
  1564     053C  0088               	movwf	8	;volatile
  1565                           
  1566                           ;BT8.c: 31:         PORTA = 0x89;RE0 = 0;
  1567     053D  3089               	movlw	137
  1568     053E  0085               	movwf	5	;volatile
  1569     053F                     l727:
  1570     053F  1009               	bcf	9,0	;volatile
  1571                           
  1572                           ;BT8.c: 34:         _delay((unsigned long)((500)*(4000000/4000.0)));
  1573     0540  3003               	movlw	3
  1574     0541  00F2               	movwf	??_choptat_IUH+2
  1575     0542  308A               	movlw	138
  1576     0543  00F1               	movwf	??_choptat_IUH+1
  1577     0544  3055               	movlw	85
  1578     0545  00F0               	movwf	??_choptat_IUH
  1579     0546                     u887:
  1580     0546  0BF0               	decfsz	??_choptat_IUH,f
  1581     0547  2D46               	goto	u887
  1582     0548  0BF1               	decfsz	??_choptat_IUH+1,f
  1583     0549  2D46               	goto	u887
  1584     054A  0BF2               	decfsz	??_choptat_IUH+2,f
  1585     054B  2D46               	goto	u887
  1586     054C  2D4D               	nop2
  1587                           
  1588                           ;BT8.c: 36:         PORTC = 0xFF;
  1589     054D  30FF               	movlw	255
  1590     054E  1283               	bcf	3,5	;RP0=0, select bank0
  1591     054F  1303               	bcf	3,6	;RP1=0, select bank0
  1592     0550  0087               	movwf	7	;volatile
  1593                           
  1594                           ;BT8.c: 37:         PORTD = 0xFF;
  1595     0551  30FF               	movlw	255
  1596     0552  0088               	movwf	8	;volatile
  1597                           
  1598                           ;BT8.c: 38:         PORTA = 0xFF;RE0 = 1;
  1599     0553  30FF               	movlw	255
  1600     0554  0085               	movwf	5	;volatile
  1601     0555                     l729:
  1602     0555  1409               	bsf	9,0	;volatile
  1603                           
  1604                           ;BT8.c: 41:         _delay((unsigned long)((500)*(4000000/4000.0)));
  1605     0556  3003               	movlw	3
  1606     0557  00F2               	movwf	??_choptat_IUH+2
  1607     0558  308A               	movlw	138
  1608     0559  00F1               	movwf	??_choptat_IUH+1
  1609     055A  3055               	movlw	85
  1610     055B  00F0               	movwf	??_choptat_IUH
  1611     055C                     u897:
  1612     055C  0BF0               	decfsz	??_choptat_IUH,f
  1613     055D  2D5C               	goto	u897
  1614     055E  0BF1               	decfsz	??_choptat_IUH+1,f
  1615     055F  2D5C               	goto	u897
  1616     0560  0BF2               	decfsz	??_choptat_IUH+2,f
  1617     0561  2D5C               	goto	u897
  1618     0562  2D63               	nop2
  1619     0563                     l731:
  1620                           
  1621                           ;BT8.c: 42:     }
  1622     0563  3001               	movlw	1
  1623     0564  00FF               	movwf	btemp+1
  1624     0565  087F               	movf	btemp+1,w
  1625     0566  07F3               	addwf	choptat_IUH@i,f
  1626     0567                     l733:
  1627     0567  3003               	movlw	3
  1628     0568  0273               	subwf	choptat_IUH@i,w
  1629     0569  1C03               	skipc
  1630     056A  2D6C               	goto	u201
  1631     056B  2D6D               	goto	u200
  1632     056C                     u201:
  1633     056C  2D37               	goto	l725
  1634     056D                     u200:
  1635     056D                     l53:
  1636     056D  0008               	return
  1637     056E                     __end_of_choptat_IUH:
  1638     007E                     btemp	set	126	;btemp
  1639     007E                     wtemp0	set	126
  1640                           
  1641                           	psect	config
  1642                           
  1643                           ;Config register CONFIG1 @ 0x2007
  1644                           ;	Oscillator Selection bits
  1645                           ;	FOSC = HS, HS oscillator: High-speed crystal/resonator on RA6/OSC2/CLKOUT and RA7/OSC1
      +                          /CLKIN
  1646                           ;	Watchdog Timer Enable bit
  1647                           ;	WDTE = OFF, WDT disabled and can be enabled by SWDTEN bit of the WDTCON register
  1648                           ;	Power-up Timer Enable bit
  1649                           ;	PWRTE = OFF, PWRT disabled
  1650                           ;	RE3/MCLR pin function select bit
  1651                           ;	MCLRE = ON, RE3/MCLR pin function is MCLR
  1652                           ;	Code Protection bit
  1653                           ;	CP = OFF, Program memory code protection is disabled
  1654                           ;	Data Code Protection bit
  1655                           ;	CPD = OFF, Data memory code protection is disabled
  1656                           ;	Brown Out Reset Selection bits
  1657                           ;	BOREN = OFF, BOR disabled
  1658                           ;	Internal External Switchover bit
  1659                           ;	IESO = OFF, Internal/External Switchover mode is disabled
  1660                           ;	Fail-Safe Clock Monitor Enabled bit
  1661                           ;	FCMEN = OFF, Fail-Safe Clock Monitor is disabled
  1662                           ;	Low Voltage Programming Enable bit
  1663                           ;	LVP = OFF, RB3 pin has digital I/O, HV on MCLR must be used for programming
  1664                           ;	In-Circuit Debugger Mode bit
  1665                           ;	DEBUG = 0x1, unprogrammed default
  1666     2007                     	org	8199
  1667     2007  20F2               	dw	8434
  1668                           
  1669                           ;Config register CONFIG2 @ 0x2008
  1670                           ;	Brown-out Reset Selection bit
  1671                           ;	BOR4V = BOR40V, Brown-out Reset set to 4.0V
  1672                           ;	Flash Program Memory Self Write Enable bits
  1673                           ;	WRT = OFF, Write protection off
  1674     2008                     	org	8200
  1675     2008  3FFF               	dw	16383

Data Sizes:
    Strings     0
    Constant    0
    Data        20
    BSS         0
    Persistent  0
    Stack       0

Auto Spaces:
    Space          Size  Autos    Used
    COMMON           14     14      14
    BANK0            80      9      29
    BANK1            80      0       0
    BANK3            96      0       0
    BANK2            96      0       0

Pointer List with Targets:

    None.

Critical Paths under _main in COMMON

    _dem999_00->___awmod
    _dem00_123->___awmod
    ___awmod->___awdiv

Critical Paths under _main in BANK0

    _main->_dem00_123
    _main->_dem999_00

Critical Paths under _main in BANK1

    None.

Critical Paths under _main in BANK3

    None.

Critical Paths under _main in BANK2

    None.

Call Graph Tables:

 ---------------------------------------------------------------------------------
 (Depth) Function   	        Calls       Base Space   Used Autos Params    Refs
 ---------------------------------------------------------------------------------
 (0) _main                                                 2     2      0    4148
                                              7 BANK0      2     2      0
                        _choptat_IUH
                          _dem00_123
                          _dem999_00
 ---------------------------------------------------------------------------------
 (1) _dem999_00                                            7     7      0    2059
                                              0 BANK0      7     7      0
                            ___awdiv
                            ___awmod
 ---------------------------------------------------------------------------------
 (1) _dem00_123                                            7     7      0    2059
                                              0 BANK0      7     7      0
                            ___awdiv
                            ___awmod
 ---------------------------------------------------------------------------------
 (2) ___awmod                                              6     2      4     904
                                              8 COMMON     6     2      4
                            ___awdiv (ARG)
 ---------------------------------------------------------------------------------
 (2) ___awdiv                                              8     4      4     908
                                              0 COMMON     8     4      4
 ---------------------------------------------------------------------------------
 (1) _choptat_IUH                                          5     5      0      30
                                              0 COMMON     4     4      0
 ---------------------------------------------------------------------------------
 Estimated maximum stack depth 2
 ---------------------------------------------------------------------------------

 Call Graph Graphs:

 _main (ROOT)
   _choptat_IUH
   _dem00_123
     ___awdiv
     ___awmod
       ___awdiv (ARG)
   _dem999_00
     ___awdiv
     ___awmod

 Address spaces:
Name               Size   Autos  Total    Cost      Usage
BANK3               60      0       0       9        0.0%
BITBANK3            60      0       0       8        0.0%
SFR3                 0      0       0       4        0.0%
BITSFR3              0      0       0       4        0.0%
BANK2               60      0       0      11        0.0%
BITBANK2            60      0       0      10        0.0%
SFR2                 0      0       0       5        0.0%
BITSFR2              0      0       0       5        0.0%
BANK1               50      0       0       7        0.0%
BITBANK1            50      0       0       6        0.0%
SFR1                 0      0       0       2        0.0%
BITSFR1              0      0       0       2        0.0%
BANK0               50      9      1D       5       36.2%
BITBANK0            50      0       0       4        0.0%
SFR0                 0      0       0       1        0.0%
BITSFR0              0      0       0       1        0.0%
COMMON               E      E       E       1      100.0%
BITCOMMON            E      0       0       0        0.0%
CODE                 0      0       0       0        0.0%
DATA                 0      0      2B      12        0.0%
ABS                  0      0      2B       3        0.0%
NULL                 0      0       0       0        0.0%
STACK                0      0       0       2        0.0%
EEDATA             100      0       0       0        0.0%


Microchip Technology PIC Macro Assembler V2.46 build 20240104201356 
Symbol Table                                                                                   Thu Sep 05 07:06:57 2024

                      pc 0002                       l60 0704                       l53 056D  
                     l62 0736                       l71 06AD                       l81 07EA  
                     l58 0706                       l82 07C4                       l67 0686  
                     l83 07AD                       l69 0684                       l77 079E  
                     l78 0787                       l88 07D3             ___awdiv@sign 0075  
                     fsr 0004                      l332 062D                      l345 05C6  
                    l731 0563                      l733 0567                      l725 0537  
                    l821 05D1                      l727 053F                      l719 0536  
                    l831 05E2                      l823 05D3                      l815 05C7  
                    l911 0707                      l903 06B2                      l729 0555  
                    l841 05FA                      l833 05E8                      l825 05D7  
                    l817 05C8                      l913 0717                      l905 06F4  
                    l843 060B                      l835 05EB                      l851 061F  
                    l827 05DC                      l819 05CC                      l915 0721  
                    l907 06F9                      l931 067E                      l853 0624  
                    l845 0611                      l837 05F2                      l829 05E0  
                    l861 056F                      l917 0729                      l909 06FE  
                    l933 0687                      l925 0634                      l941 0737  
                    l855 0629                      l847 0612                      l839 05F6  
                    l871 0583                      l863 0573                      l935 0697  
                    l927 0674                      l919 062E                      l951 0770  
                    l943 073B                      l849 0619                      l881 059B  
                    l873 0589                      l865 0578                      l937 06A1  
                    l929 0679                      l961 078D                      l953 0772  
                    l945 0752                      l891 05BD                      l883 05A5  
                    l875 058C                      l867 057A                      l859 056E  
                    l939 06A9                      l971 07C8                      l963 0798  
                    l955 0774                      l947 0753                      l893 05C2  
                    l885 05AB                      l877 0593                      l869 057E  
                    l973 07D9                      l965 07A2                      l957 0776  
                    l949 076C                      l887 05B2                      l879 0597  
                    l975 07E4                      l967 07B3                      l959 077C  
                    l889 05B8                      l897 06AE                      l969 07BE  
                    _RB0 0030                      _RB1 0031                      _RB2 0032  
                    _RE0 0048                      u200 056D                      u201 056C  
                    u410 05CC                      u411 05CB                      u500 0624  
                    u420 05D7                      u501 0623                      u421 05D6  
                    u430 05E8                      u510 0573                      u431 05E7  
                    u511 0572                      u520 057E                      u600 06F9  
                    u521 057D                      u601 06F8                      u450 05FA  
                    u530 0589                      u610 06FE                      u451 05F9  
                    u531 0588                      u611 06FD                      u620 0704  
                    u445 05EC                      u621 0703                      u470 060B  
                    u550 059B                      u630 0736                      u710 075B  
                    u471 060A                      u551 059A                      u631 0735  
                    u711 0757                      u560 05A5                      u640 0679  
                    u720 0765                      u704 0752                      u465 05FB  
                    u561 05A4                      u545 058D                      u641 0678  
                    u721 0761                      u490 061F                      u650 067E  
                    u491 061E                      u475 0607                      u635 0732  
                    u651 067D                      u580 05B8                      u660 0684  
                    u740 077C                      u724 075E                      u485 0613  
                    u581 05B7                      u565 05A1                      u661 0683  
                    u741 077B                      u590 05BD                      u670 06AD  
                    u750 078D                      u734 0768                      u591 05BC  
                    u575 05AC                      u671 06AC                      u751 078C  
                    u807 0782                      u760 07A2                      u680 0745  
                    u761 07A1                      u817 0793                      u681 0741  
                    u770 07B3                      u690 074F                      u771 07B2  
                    u827 07A8                      u691 074B                      u780 07C8  
                    u781 07C7                      u837 07B9                      u790 07D9  
                    u694 0748                      u791 07D8                      u847 07CE  
                    u857 07DF                      u867 069D                      u877 071D  
                    u887 0546                      u897 055C                      fsr0 0004  
                    indf 0000             ___awmod@sign 007D                     _main 0737  
                   btemp 007E                     start 0000            dem999_00@chuc 0036  
          dem999_00@tram 0037                    ?_main 0070          __end_of___awdiv 062E  
        __end_of___awmod 05C7                    _ANSEL 0188          ___awdiv@divisor 0070  
        ___awdiv@counter 0074                    _PORTA 0005                    _PORTC 0007  
                  _PORTD 0008                    _PORTE 0009                    _TRISA 0085  
                  _TRISC 0087                    _TRISD 0088                    _TRISE 0089  
                  _WPUB0 04A8                    _WPUB1 04A9                    _WPUB2 04AA  
                  _MaLed 002A                    _nRBPU 040F                    pclath 000A  
                  status 0003                    wtemp0 007E          __initialization 07EE  
           __end_of_main 07EE                   ??_main 003B           dem999_00@donVi 0038  
       ___awdiv@dividend 0072                   _ANSELH 0189                   _TRISB0 0430  
                 _TRISB1 0431                   _TRISB2 0432                ??___awdiv 0074  
              ??___awmod 007C         ___awdiv@quotient 0076          ___awmod@divisor 0078  
        ___awmod@counter 007C               dem00_123@i 0039  __end_of__initialization 07FC  
             dem999_00@i 0039           __pcstackCOMMON 0070             __pidataBANK0 0522  
             __pmaintext 0737        __end_of_dem00_123 0737        __end_of_dem999_00 06AE  
                ___awdiv 05C7                  ___awmod 056E                  __ptext1 062E  
                __ptext2 06AE                  __ptext3 056E                  __ptext4 05C7  
                __ptext5 0536         ___awmod@dividend 007A     end_of_initialization 07FC  
          ??_choptat_IUH 0070      start_initialization 07EE      __end_of_choptat_IUH 056E  
             init_fetch0 050F              __pdataBANK0 0020                _dem00_123 06AE  
              _dem999_00 062E                ___latbits 0002            __pcstackBANK0 0034  
               ?___awdiv 0070                 ?___awmod 0078               ?_dem00_123 0070  
             ?_dem999_00 0070              _choptat_IUH 0536              ??_dem00_123 0034  
            ??_dem999_00 0034           dem00_123@donVi 0038                 init_ram0 0513  
       _MaLed7Seg_nghich 0020            dem00_123@chuc 0036            dem00_123@tram 0037  
           choptat_IUH@i 0073             ?_choptat_IUH 0070  
